(dp0
Vsize
p1
V0 bytes
p2
sVhash
p3
V9188c30a86c94a6813cae36d667436ad
p4
sVbytes
p5
I0
sVthumb_exists
p6
I00
sVrev
p7
V3df0a0ed30a
p8
sVmodified
p9
VSat, 27 Oct 2012 07:22:24 +0000
p10
sVpath
p11
V/blog_kr
p12
sVis_dir
p13
I01
sVicon
p14
Vfolder
p15
sVroot
p16
Vapp_folder
p17
sVcontents
p18
(lp19
sVrevision
p20
I991
s.