(dp0
Vhash
p1
Vc13df44092345d8e2a5d939a07e4385a
p2
sVthumb_exists
p3
I00
sVbytes
p4
I0
sVpath
p5
V/
p6
sVis_dir
p7
I01
sVicon
p8
Vfolder
p9
sVroot
p10
Vapp_folder
p11
sVcontents
p12
(lp13
(dp14
Vsize
p15
V0 bytes
p16
sVrev
p17
V3a70a0ed30a
p18
sVthumb_exists
p19
I00
sVbytes
p20
I0
sVmodified
p21
VMon, 22 Oct 2012 12:48:13 +0000
p22
sVpath
p23
V/!blog
p24
sVis_dir
p25
I01
sVicon
p26
Vfolder
p27
sVroot
p28
Vdropbox
p29
sVrevision
p30
I935
sa(dp31
Vsize
p32
V0 bytes
p33
sVrev
p34
V3d90a0ed30a
p35
sVthumb_exists
p36
I00
sVbytes
p37
I0
sVmodified
p38
VSat, 27 Oct 2012 07:10:33 +0000
p39
sVpath
p40
V/!ideas
p41
sVis_dir
p42
I01
sVicon
p43
Vfolder
p44
sVroot
p45
Vdropbox
p46
sVrevision
p47
I985
sa(dp48
Vsize
p49
V0 bytes
p50
sVrev
p51
V38d0a0ed30a
p52
sVthumb_exists
p53
I00
sVbytes
p54
I0
sVmodified
p55
VMon, 22 Oct 2012 03:15:12 +0000
p56
sVpath
p57
V/!wip
p58
sVis_dir
p59
I01
sVicon
p60
Vfolder
p61
sVroot
p62
Vdropbox
p63
sVrevision
p64
I909
sa(dp65
Vsize
p66
V0 bytes
p67
sVrev
p68
V30f0a0ed30a
p69
sVthumb_exists
p70
I00
sVbytes
p71
I0
sVmodified
p72
VSun, 21 Oct 2012 03:17:57 +0000
p73
sVpath
p74
V/articles
p75
sVis_dir
p76
I01
sVicon
p77
Vfolder
p78
sVroot
p79
Vdropbox
p80
sVrevision
p81
I783
sa(dp82
Vsize
p83
V0 bytes
p84
sVrev
p85
V3df0a0ed30a
p86
sVthumb_exists
p87
I00
sVbytes
p88
I0
sVmodified
p89
VSat, 27 Oct 2012 07:22:24 +0000
p90
sVpath
p91
V/blog_kr
p92
sVis_dir
p93
I01
sVicon
p94
Vfolder
p95
sVroot
p96
Vdropbox
p97
sVrevision
p98
I991
sa(dp99
Vsize
p100
V35 bytes
p101
sVrev
p102
V2c90a0ed30a
p103
sVthumb_exists
p104
I00
sVbytes
p105
I35
sVmodified
p106
VThu, 18 Oct 2012 02:42:26 +0000
p107
sVmime_type
p108
Vapplication/octet-stream
p109
sVpath
p110
V/dirinfo.json
p111
sVis_dir
p112
I00
sVicon
p113
Vpage_white
p114
sVroot
p115
Vdropbox
p116
sVclient_mtime
p117
VThu, 18 Oct 2012 02:42:23 +0000
p118
sVrevision
p119
I713
sa(dp120
Vsize
p121
V2.5 KB
p122
sVrev
p123
V1d10a0ed30a
p124
sVthumb_exists
p125
I00
sVbytes
p126
I2601
sVmodified
p127
VThu, 04 Oct 2012 05:28:05 +0000
p128
sVmime_type
p129
Vimage/x-icon
p130
sVpath
p131
V/favicon.ico
p132
sVis_dir
p133
I00
sVicon
p134
Vpage_white
p135
sVroot
p136
Vdropbox
p137
sVclient_mtime
p138
VSat, 08 Sep 2012 03:21:08 +0000
p139
sVrevision
p140
I465
sa(dp141
Vsize
p142
V2.2 MB
p143
sVrev
p144
V19b0a0ed30a
p145
sVthumb_exists
p146
I01
sVbytes
p147
I2307948
sVmodified
p148
VThu, 20 Sep 2012 08:13:53 +0000
p149
sVmime_type
p150
Vimage/jpeg
p151
sVpath
p152
V/IMG_0396.jpg
p153
sVis_dir
p154
I00
sVicon
p155
Vpage_white_picture
p156
sVroot
p157
Vdropbox
p158
sVclient_mtime
p159
VSun, 19 Aug 2012 07:24:38 +0000
p160
sVrevision
p161
I411
sa(dp162
Vsize
p163
V2.1 MB
p164
sVrev
p165
V19f0a0ed30a
p166
sVthumb_exists
p167
I01
sVbytes
p168
I2202910
sVmodified
p169
VThu, 20 Sep 2012 08:13:53 +0000
p170
sVmime_type
p171
Vimage/jpeg
p172
sVpath
p173
V/IMG_0397.jpg
p174
sVis_dir
p175
I00
sVicon
p176
Vpage_white_picture
p177
sVroot
p178
Vdropbox
p179
sVclient_mtime
p180
VSun, 19 Aug 2012 07:24:39 +0000
p181
sVrevision
p182
I415
sa(dp183
Vsize
p184
V2.1 MB
p185
sVrev
p186
V1a00a0ed30a
p187
sVthumb_exists
p188
I01
sVbytes
p189
I2223495
sVmodified
p190
VThu, 20 Sep 2012 08:13:53 +0000
p191
sVmime_type
p192
Vimage/jpeg
p193
sVpath
p194
V/IMG_0436.jpg
p195
sVis_dir
p196
I00
sVicon
p197
Vpage_white_picture
p198
sVroot
p199
Vdropbox
p200
sVclient_mtime
p201
VSun, 19 Aug 2012 07:24:48 +0000
p202
sVrevision
p203
I416
sa(dp204
Vsize
p205
V2.1 MB
p206
sVrev
p207
V19e0a0ed30a
p208
sVthumb_exists
p209
I01
sVbytes
p210
I2187557
sVmodified
p211
VThu, 20 Sep 2012 08:13:53 +0000
p212
sVmime_type
p213
Vimage/jpeg
p214
sVpath
p215
V/IMG_0437.jpg
p216
sVis_dir
p217
I00
sVicon
p218
Vpage_white_picture
p219
sVroot
p220
Vdropbox
p221
sVclient_mtime
p222
VSun, 19 Aug 2012 07:24:48 +0000
p223
sVrevision
p224
I414
sa(dp225
Vsize
p226
V2 MB
p227
sVrev
p228
V19d0a0ed30a
p229
sVthumb_exists
p230
I01
sVbytes
p231
I2113620
sVmodified
p232
VThu, 20 Sep 2012 08:13:53 +0000
p233
sVmime_type
p234
Vimage/jpeg
p235
sVpath
p236
V/IMG_0438.jpg
p237
sVis_dir
p238
I00
sVicon
p239
Vpage_white_picture
p240
sVroot
p241
Vdropbox
p242
sVclient_mtime
p243
VSun, 19 Aug 2012 07:24:48 +0000
p244
sVrevision
p245
I413
sa(dp246
Vsize
p247
V1.9 KB
p248
sVrev
p249
V3a30a0ed30a
p250
sVthumb_exists
p251
I00
sVbytes
p252
I1944
sVmodified
p253
VMon, 22 Oct 2012 11:49:54 +0000
p254
sVmime_type
p255
Vtext/html
p256
sVpath
p257
V/index.html
p258
sVis_dir
p259
I00
sVicon
p260
Vpage_white_code
p261
sVroot
p262
Vdropbox
p263
sVclient_mtime
p264
VMon, 22 Oct 2012 11:49:51 +0000
p265
sVrevision
p266
I931
sa(dp267
Vsize
p268
V410 bytes
p269
sVrev
p270
V3d60a0ed30a
p271
sVthumb_exists
p272
I00
sVbytes
p273
I410
sVmodified
p274
VSat, 27 Oct 2012 04:15:55 +0000
p275
sVmime_type
p276
Vapplication/octet-stream
p277
sVpath
p278
V/intro.md
p279
sVis_dir
p280
I00
sVicon
p281
Vpage_white_text
p282
sVroot
p283
Vdropbox
p284
sVclient_mtime
p285
VSat, 27 Oct 2012 04:15:55 +0000
p286
sVrevision
p287
I982
sa(dp288
Vsize
p289
V142.4 KB
p290
sVrev
p291
V2670a0ed30a
p292
sVthumb_exists
p293
I01
sVbytes
p294
I145824
sVmodified
p295
VThu, 11 Oct 2012 12:55:54 +0000
p296
sVmime_type
p297
Vimage/jpeg
p298
sVpath
p299
V/Photo Oct 05, 7 19 34 PM.jpg
p300
sVis_dir
p301
I00
sVicon
p302
Vpage_white_picture
p303
sVroot
p304
Vdropbox
p305
sVclient_mtime
p306
VThu, 11 Oct 2012 12:55:54 +0000
p307
sVrevision
p308
I615
sa(dp309
Vsize
p310
V2 MB
p311
sVrev
p312
V2680a0ed30a
p313
sVthumb_exists
p314
I01
sVbytes
p315
I2101248
sVmodified
p316
VThu, 11 Oct 2012 12:55:59 +0000
p317
sVmime_type
p318
Vimage/jpeg
p319
sVpath
p320
V/Photo Oct 10, 11 50 56 AM.jpg
p321
sVis_dir
p322
I00
sVicon
p323
Vpage_white_picture
p324
sVroot
p325
Vdropbox
p326
sVclient_mtime
p327
VThu, 11 Oct 2012 12:55:59 +0000
p328
sVrevision
p329
I616
sa(dp330
Vsize
p331
V552 bytes
p332
sVrev
p333
V32e0a0ed30a
p334
sVthumb_exists
p335
I00
sVbytes
p336
I552
sVmodified
p337
VMon, 22 Oct 2012 00:51:46 +0000
p338
sVmime_type
p339
Vapplication/octet-stream
p340
sVpath
p341
V/projects.md
p342
sVis_dir
p343
I00
sVicon
p344
Vpage_white_text
p345
sVroot
p346
Vdropbox
p347
sVclient_mtime
p348
VMon, 22 Oct 2012 00:51:47 +0000
p349
sVrevision
p350
I814
sa(dp351
Vsize
p352
V0 bytes
p353
sVrev
p354
V20f0a0ed30a
p355
sVthumb_exists
p356
I00
sVbytes
p357
I0
sVmodified
p358
VThu, 11 Oct 2012 04:53:46 +0000
p359
sVpath
p360
V/sample
p361
sVis_dir
p362
I01
sVicon
p363
Vfolder
p364
sVroot
p365
Vdropbox
p366
sVrevision
p367
I527
sa(dp368
Vsize
p369
V2.7 KB
p370
sVrev
p371
V3a40a0ed30a
p372
sVthumb_exists
p373
I00
sVbytes
p374
I2754
sVmodified
p375
VMon, 22 Oct 2012 11:50:03 +0000
p376
sVmime_type
p377
Vtext/css
p378
sVpath
p379
V/style.css
p380
sVis_dir
p381
I00
sVicon
p382
Vpage_white_code
p383
sVroot
p384
Vdropbox
p385
sVclient_mtime
p386
VMon, 22 Oct 2012 11:50:01 +0000
p387
sVrevision
p388
I932
sasVsize
p389
V0 bytes
p390
s.